target datalayout = "e-m:e-p270:32:32-p271:32:32-p272:64:64-i64:64-i128:128-f80:128-n8:16:32:64-S128"
target triple = "x86_64-pc-linux-gnu"

%"class.llvm::SmallPtrSetImplBase.base" = type <{ ptr, ptr, i32, i32, i32 }>
%"class.(anonymous namespace)::LegalizerWorkListManager" = type { %"class.llvm::GISelChangeObserver", ptr, ptr }
%"class.llvm::GISelChangeObserver" = type { ptr, %"class.llvm::SmallPtrSet.212" }
%"class.llvm::SmallPtrSet.212" = type { %"class.llvm::SmallPtrSetImpl.base.214", [4 x ptr] }
%"class.llvm::SmallPtrSetImpl.base.214" = type { %"class.llvm::SmallPtrSetImplBase.base" }
%"class.llvm::ilist_node_impl.182" = type { %"class.llvm::ilist_node_base.183" }
%"class.llvm::ilist_node_base.183" = type { %"class.llvm::ilist_detail::node_base_prevnext.184" }
%"class.llvm::ilist_detail::node_base_prevnext.184" = type { %"class.llvm::PointerIntPair.185", ptr }
%"class.llvm::PointerIntPair.185" = type { %"struct.llvm::detail::PunnedPointer.186" }
%"struct.llvm::detail::PunnedPointer.186" = type { [8 x i8] }
%"class.llvm::MachineInstr" = type <{ %"class.llvm::ilist_node_with_parent.210", ptr, ptr, ptr, [3 x i8], %"class.llvm::ArrayRecycler<llvm::MachineOperand>::Capacity", i32, %"class.llvm::PointerSumType", %"class.llvm::DebugLoc", i32, i16, [2 x i8] }>
%"class.llvm::ilist_node_with_parent.210" = type { %"class.llvm::ilist_node.211" }
%"class.llvm::ilist_node.211" = type { %"class.llvm::ilist_node_impl.182" }
%"class.llvm::ArrayRecycler<llvm::MachineOperand>::Capacity" = type { i8 }
%"class.llvm::PointerSumType" = type { %"union.llvm::PointerSumType<llvm::MachineInstr::ExtraInfoInlineKinds, llvm::PointerSumTypeMember<0, llvm::MachineMemOperand *>, llvm::PointerSumTypeMember<1, llvm::MCSymbol *>, llvm::PointerSumTypeMember<2, llvm::MCSymbol *>, llvm::PointerSumTypeMember<3, llvm::MachineInstr::ExtraInfo *>>::StorageT" }
%"union.llvm::PointerSumType<llvm::MachineInstr::ExtraInfoInlineKinds, llvm::PointerSumTypeMember<0, llvm::MachineMemOperand *>, llvm::PointerSumTypeMember<1, llvm::MCSymbol *>, llvm::PointerSumTypeMember<2, llvm::MCSymbol *>, llvm::PointerSumTypeMember<3, llvm::MachineInstr::ExtraInfo *>>::StorageT" = type { i64 }
%"class.llvm::DebugLoc" = type { %"class.llvm::TypedTrackingMDRef" }
%"class.llvm::TypedTrackingMDRef" = type { %"class.llvm::TrackingMDRef" }
%"class.llvm::TrackingMDRef" = type { ptr }

; Function Attrs: mustprogress nounwind uwtable
define linkonce_odr hidden noundef zeroext i1 @_ZN4llvm22isPreISelGenericOpcodeEj(i32 noundef %0) #1 comdat {
  %2 = alloca i32, align 4
  store i32 %0, ptr %2, align 4
  %3 = load i32, ptr %2, align 4
  %4 = icmp uge i32 %3, 52
  br i1 %4, label %5, label %8

5:                                                ; preds = %1
  %6 = load i32, ptr %2, align 4
  %7 = icmp ule i32 %6, 295
  br label %8

8:                                                ; preds = %5, %1
  %9 = phi i1 [ false, %1 ], [ %7, %5 ]
  ret i1 %9
}

; Function Attrs: mustprogress nounwind uwtable
define linkonce_odr hidden noundef i32 @_ZNK4llvm12MachineInstr9getOpcodeEv(ptr noundef nonnull align 8 dereferenceable(70) %0) #1 comdat align 2 {
  %2 = alloca ptr, align 8
  store ptr %0, ptr %2, align 8
  %3 = load ptr, ptr %2, align 8
  %4 = getelementptr inbounds nuw %"class.llvm::MachineInstr", ptr %3, i32 0, i32 10
  %5 = load i16, ptr %4, align 4
  %6 = zext i16 %5 to i32
  ret i32 %6
}

; Function Attrs: mustprogress nounwind uwtable
define internal void @_ZN12_GLOBAL__N_124LegalizerWorkListManager21createdOrChangedInstrERN4llvm12MachineInstrE(ptr noundef nonnull align 8 dereferenceable(88) %0, ptr noundef nonnull align 8 dereferenceable(70) %1) #1 align 2 {
  %3 = alloca ptr, align 8
  %4 = alloca ptr, align 8
  store ptr %0, ptr %3, align 8
  store ptr %1, ptr %4, align 8
  %5 = load ptr, ptr %3, align 8
  %6 = load ptr, ptr %4, align 8
  %7 = call noundef i32 @_ZNK4llvm12MachineInstr9getOpcodeEv(ptr noundef nonnull align 8 dereferenceable(70) %6)
  %8 = call noundef zeroext i1 @_ZN4llvm22isPreISelGenericOpcodeEj(i32 noundef %7)
  br i1 %8, label %9, label %21

9:                                                ; preds = %2
  %10 = load ptr, ptr %4, align 8
  %11 = call noundef zeroext i1 @_ZL10isArtifactRKN4llvm12MachineInstrE(ptr noundef nonnull align 8 dereferenceable(70) %10)
  br i1 %11, label %12, label %16

12:                                               ; preds = %9
  %13 = getelementptr inbounds nuw %"class.(anonymous namespace)::LegalizerWorkListManager", ptr %5, i32 0, i32 2
  %14 = load ptr, ptr %13, align 8
  %15 = load ptr, ptr %4, align 8
  call void @_ZN4llvm13GISelWorkListILj128EE6insertEPNS_12MachineInstrE(ptr noundef nonnull align 8 dereferenceable(1064) %14, ptr noundef %15)
  br label %20

16:                                               ; preds = %9
  %17 = getelementptr inbounds nuw %"class.(anonymous namespace)::LegalizerWorkListManager", ptr %5, i32 0, i32 1
  %18 = load ptr, ptr %17, align 8
  %19 = load ptr, ptr %4, align 8
  call void @_ZN4llvm13GISelWorkListILj256EE6insertEPNS_12MachineInstrE(ptr noundef nonnull align 8 dereferenceable(2088) %18, ptr noundef %19)
  br label %20

20:                                               ; preds = %16, %12
  br label %21

21:                                               ; preds = %20, %2
  ret void
}

; Function Attrs: mustprogress nounwind uwtable
define internal void @_ZN12_GLOBAL__N_124LegalizerWorkListManager12createdInstrERN4llvm12MachineInstrE(ptr noundef nonnull align 8 dereferenceable(88) %0, ptr noundef nonnull align 8 dereferenceable(70) %1) unnamed_addr #1 align 2 {
  %3 = alloca ptr, align 8
  %4 = alloca ptr, align 8
  store ptr %0, ptr %3, align 8
  store ptr %1, ptr %4, align 8
  %5 = load ptr, ptr %3, align 8
  br label %6

6:                                                ; preds = %2
  br label %7

7:                                                ; preds = %6
  %8 = load ptr, ptr %4, align 8
  call void @_ZN12_GLOBAL__N_124LegalizerWorkListManager21createdOrChangedInstrERN4llvm12MachineInstrE(ptr noundef nonnull align 8 dereferenceable(88) %5, ptr noundef nonnull align 8 dereferenceable(70) %8)
  ret void
}