; Function Attrs: mustprogress nounwind uwtable
define internal void @_ZN12_GLOBAL__N_124LegalizerWorkListManager12createdInstrERN4llvm12MachineInstrE(ptr noundef nonnull readonly align 8 captures(none) dereferenceable(88) %0, ptr noundef nonnull align 8 dereferenceable(70) %1) unnamed_addr #0 align 2 {
  %3 = getelementptr inbounds nuw i8, ptr %0, i64 72
  %.val = load ptr, ptr %3, align 8
  %4 = getelementptr inbounds nuw i8, ptr %0, i64 80
  %.val2 = load ptr, ptr %4, align 8
  %5 = getelementptr inbounds nuw i8, ptr %1, i64 68
  %6 = load i16, ptr %5, align 4
  %7 = add i16 %6, -52
  %8 = icmp ult i16 %7, 244
  br i1 %8, label %9, label %_ZN12_GLOBAL__N_124LegalizerWorkListManager21createdOrChangedInstrERN4llvm12MachineInstrE.exit

9:                                                ; preds = %2
  %10 = tail call fastcc noundef zeroext i1 @_ZL10isArtifactRKN4llvm12MachineInstrE(i16 %6)
  br i1 %10, label %11, label %12

11:                                               ; preds = %9
  tail call void @_ZN4llvm13GISelWorkListILj128EE6insertEPNS_12MachineInstrE(ptr noundef nonnull align 8 dereferenceable(1064) %.val2, ptr noundef nonnull align 8 dereferenceable(70) %1)
  br label %_ZN12_GLOBAL__N_124LegalizerWorkListManager21createdOrChangedInstrERN4llvm12MachineInstrE.exit

12:                                               ; preds = %9
  tail call void @_ZN4llvm13GISelWorkListILj256EE6insertEPNS_12MachineInstrE(ptr noundef nonnull align 8 dereferenceable(2088) %.val, ptr noundef nonnull align 8 dereferenceable(70) %1)
  br label %_ZN12_GLOBAL__N_124LegalizerWorkListManager21createdOrChangedInstrERN4llvm12MachineInstrE.exit

_ZN12_GLOBAL__N_124LegalizerWorkListManager21createdOrChangedInstrERN4llvm12MachineInstrE.exit: ; preds = %2, %11, %12
  ret void
}